; Function Attrs: noreturn nounwind sspstrong uwtable
define internal void @sigbus(i32 noundef %0, ptr noundef readonly captures(none) %1, ptr noundef %2) #11 {
  tail call fastcc void @check_reserved_signal_(ptr noundef nonnull @.str.39, i64 noundef 3, i32 noundef %0)
  %4 = getelementptr inbounds nuw i8, ptr %1, i64 8
  %5 = load i32, ptr %4, align 8, !tbaa !105
  %6 = icmp eq i32 %5, 0
  %.phi.trans.insert = getelementptr inbounds nuw i8, ptr %1, i64 16
  %.pre = load ptr, ptr %.phi.trans.insert, align 8, !tbaa !58
  br i1 %6, label %check_stack_overflow.exit, label %7

7:                                                ; preds = %3
  %8 = ptrtoint ptr %.pre to i64
  %9 = getelementptr i8, ptr %2, i64 160
  %.val7 = load i64, ptr %9, align 8, !tbaa !107
  %10 = lshr i64 %.val7, 12
  %11 = lshr i64 %8, 12
  %12 = icmp eq i64 %10, %11
  %13 = add nuw nsw i64 %11, 1
  %14 = icmp eq i64 %10, %13
  %or.cond.i = select i1 %12, i1 true, i1 %14
  br i1 %or.cond.i, label %18, label %15

15:                                               ; preds = %7
  %16 = getelementptr i8, ptr %2, i64 120
  %.val = load i64, ptr %16, align 8, !tbaa !107
  %17 = lshr i64 %.val, 12
  %.not.i = icmp samesign ugt i64 %10, %11
  %.not26.i = icmp samesign ugt i64 %11, %17
  %or.cond31.i = select i1 %.not.i, i1 true, i1 %.not26.i
  br i1 %or.cond31.i, label %check_stack_overflow.exit, label %18

18:                                               ; preds = %15, %7
  %19 = tail call align 8 ptr @llvm.threadlocal.address.p0(ptr align 8 @ruby_current_ec)
  %20 = load ptr, ptr %19, align 8, !tbaa !23
  %21 = getelementptr inbounds nuw i8, ptr %20, i64 24
  %.promoted.i = load ptr, ptr %21, align 8, !tbaa !79
  %22 = getelementptr inbounds nuw i8, ptr %.promoted.i, i64 16
  %23 = ptrtoint ptr %22 to i64
  %24 = lshr i64 %23, 12
  %.not271.i = icmp samesign ugt i64 %24, %13
  br i1 %.not271.i, label %._crit_edge.i, label %.lr.ph.i

.lr.ph.i:                                         ; preds = %18, %30
  %.02.i = phi i32 [ %28, %30 ], [ 28, %18 ]
  %25 = phi ptr [ %27, %30 ], [ %.promoted.i, %18 ]
  %26 = getelementptr inbounds nuw i8, ptr %25, i64 56
  %27 = load ptr, ptr %26, align 8, !tbaa !80
  %.not28.i = icmp eq ptr %27, null
  %28 = add nsw i32 %.02.i, -1
  %.not29.i = icmp eq i32 %28, 0
  %29 = select i1 %.not28.i, i1 true, i1 %.not29.i
  br i1 %29, label %._crit_edge.i, label %30

30:                                               ; preds = %.lr.ph.i
  store ptr %27, ptr %21, align 8, !tbaa !79
  %31 = getelementptr inbounds nuw i8, ptr %27, i64 16
  %32 = ptrtoint ptr %31 to i64
  %33 = lshr i64 %32, 12
  %.not27.i = icmp samesign ugt i64 %33, %13
  br i1 %.not27.i, label %._crit_edge.i, label %.lr.ph.i, !llvm.loop !108

._crit_edge.i:                                    ; preds = %30, %.lr.ph.i, %18
  %.123.i = phi i32 [ 0, %18 ], [ 0, %30 ], [ 1, %.lr.ph.i ]
  tail call fastcc void @reset_sigmask(i32 noundef %0)
  tail call void @rb_ec_stack_overflow(ptr noundef nonnull %20, i32 noundef %.123.i) #19
  unreachable

check_stack_overflow.exit:                        ; preds = %3, %15
  %34 = load ptr, ptr @default_sigbus_handler, align 8, !tbaa !99
  tail call void (ptr, i32, ptr, ptr, ...) @rb_bug_for_fatal_signal(ptr noundef %34, i32 noundef %0, ptr noundef %2, ptr noundef nonnull @.str.40, ptr noundef %.pre) #19
  unreachable
}